; Function Attrs: mustprogress uwtable
define dso_local noundef zeroext i1 @_ZNK3dap6Socket6isOpenEv(ptr nocapture noundef nonnull readonly align 8 dereferenceable(16) %0) local_unnamed_addr #0 align 2 {
  %2 = load ptr, ptr %0, align 8
  %.not = icmp eq ptr %2, null
  br i1 %.not, label %8, label %3

3:                                                ; preds = %1
  %4 = load ptr, ptr %2, align 8
  %5 = getelementptr inbounds i8, ptr %4, i64 16
  %6 = load ptr, ptr %5, align 8
  %7 = tail call noundef zeroext i1 %6(ptr noundef nonnull align 8 dereferenceable(128) %2)
  br label %8

8:                                                ; preds = %1, %3
  %.0 = phi i1 [ %7, %3 ], [ false, %1 ]
  ret i1 %.0
}